target datalayout = "e-m:e-p270:32:32-p271:32:32-p272:64:64-i64:64-i128:128-f80:128-n8:16:32:64-S128"
target triple = "x86_64-pc-linux-gnu"

%struct.commview_ncfx_mcs_header = type { i8, i8, i8, i8 }

; Function Attrs: null_pointer_is_valid sspstrong uwtable
define internal zeroext i1 @commview_ncfx_read_mcs_header(ptr noundef %0, ptr noundef %1, ptr noundef %2, ptr noundef %3) #0 {
  %5 = alloca i1, align 1
  %6 = alloca ptr, align 8
  %7 = alloca ptr, align 8
  %8 = alloca ptr, align 8
  %9 = alloca ptr, align 8
  store ptr %0, ptr %6, align 8
  store ptr %1, ptr %7, align 8
  store ptr %2, ptr %8, align 8
  store ptr %3, ptr %9, align 8
  %10 = load ptr, ptr %7, align 8
  %11 = load ptr, ptr %6, align 8
  %12 = getelementptr inbounds nuw %struct.commview_ncfx_mcs_header, ptr %11, i32 0, i32 0
  %13 = load ptr, ptr %8, align 8
  %14 = load ptr, ptr %9, align 8
  %15 = call zeroext i1 @wtap_read_bytes(ptr noundef %10, ptr noundef %12, i32 noundef 1, ptr noundef %13, ptr noundef %14)
  br i1 %15, label %17, label %16

16:                                               ; preds = %4
  store i1 false, ptr %5, align 1
  br label %42

17:                                               ; preds = %4
  %18 = load ptr, ptr %7, align 8
  %19 = load ptr, ptr %6, align 8
  %20 = getelementptr inbounds nuw %struct.commview_ncfx_mcs_header, ptr %19, i32 0, i32 1
  %21 = load ptr, ptr %8, align 8
  %22 = load ptr, ptr %9, align 8
  %23 = call zeroext i1 @wtap_read_bytes(ptr noundef %18, ptr noundef %20, i32 noundef 1, ptr noundef %21, ptr noundef %22)
  br i1 %23, label %25, label %24

24:                                               ; preds = %17
  store i1 false, ptr %5, align 1
  br label %42

25:                                               ; preds = %17
  %26 = load ptr, ptr %7, align 8
  %27 = load ptr, ptr %6, align 8
  %28 = getelementptr inbounds nuw %struct.commview_ncfx_mcs_header, ptr %27, i32 0, i32 2
  %29 = load ptr, ptr %8, align 8
  %30 = load ptr, ptr %9, align 8
  %31 = call zeroext i1 @wtap_read_bytes(ptr noundef %26, ptr noundef %28, i32 noundef 1, ptr noundef %29, ptr noundef %30)
  br i1 %31, label %33, label %32

32:                                               ; preds = %25
  store i1 false, ptr %5, align 1
  br label %42

33:                                               ; preds = %25
  %34 = load ptr, ptr %7, align 8
  %35 = load ptr, ptr %6, align 8
  %36 = getelementptr inbounds nuw %struct.commview_ncfx_mcs_header, ptr %35, i32 0, i32 3
  %37 = load ptr, ptr %8, align 8
  %38 = load ptr, ptr %9, align 8
  %39 = call zeroext i1 @wtap_read_bytes(ptr noundef %34, ptr noundef %36, i32 noundef 1, ptr noundef %37, ptr noundef %38)
  br i1 %39, label %41, label %40

40:                                               ; preds = %33
  store i1 false, ptr %5, align 1
  br label %42

41:                                               ; preds = %33
  store i1 true, ptr %5, align 1
  br label %42

42:                                               ; preds = %41, %40, %32, %24, %16
  %43 = load i1, ptr %5, align 1
  ret i1 %43
}