; Function Attrs: null_pointer_is_valid sspstrong uwtable
define internal fastcc zeroext i1 @commview_ncfx_read_mcs_header(ptr noundef %0, ptr noundef %1, ptr noundef %2, ptr noundef %3) unnamed_addr #0 {
  %5 = tail call zeroext i1 @wtap_read_bytes(ptr noundef %1, ptr noundef %0, i32 noundef 1, ptr noundef %2, ptr noundef %3)
  br i1 %5, label %6, label %15

6:                                                ; preds = %4
  %7 = getelementptr inbounds nuw i8, ptr %0, i64 1
  %8 = tail call zeroext i1 @wtap_read_bytes(ptr noundef %1, ptr noundef nonnull %7, i32 noundef 1, ptr noundef %2, ptr noundef %3)
  br i1 %8, label %9, label %15

9:                                                ; preds = %6
  %10 = getelementptr inbounds nuw i8, ptr %0, i64 2
  %11 = tail call zeroext i1 @wtap_read_bytes(ptr noundef %1, ptr noundef nonnull %10, i32 noundef 1, ptr noundef %2, ptr noundef %3)
  br i1 %11, label %12, label %15

12:                                               ; preds = %9
  %13 = getelementptr inbounds nuw i8, ptr %0, i64 3
  %14 = tail call zeroext i1 @wtap_read_bytes(ptr noundef %1, ptr noundef nonnull %13, i32 noundef 1, ptr noundef %2, ptr noundef %3)
  br label %15

15:                                               ; preds = %12, %9, %6, %4
  %.0 = phi i1 [ false, %4 ], [ false, %6 ], [ false, %9 ], [ %14, %12 ]
  ret i1 %.0
}